; Function Attrs: null_pointer_is_valid sspstrong uwtable
define hidden void @radius_date(ptr noundef readonly captures(none) %0, ptr noundef %1, ptr noundef readonly captures(none) %2, ptr noundef %3, i32 noundef %4, i32 noundef %5, ptr noundef %6) #0 {
  %8 = alloca %struct.nstime_t, align 8
  call void @llvm.lifetime.start.p0(i64 16, ptr nonnull %8) #14
  %.not = icmp eq i32 %5, 4
  br i1 %.not, label %10, label %9

9:                                                ; preds = %7
  tail call void (ptr, ptr, ...) @proto_item_append_text(ptr noundef %6, ptr noundef nonnull @.str.19)
  br label %20

10:                                               ; preds = %7
  %11 = tail call i32 @tvb_get_ntohl(ptr noundef %3, i32 noundef %4)
  %12 = zext i32 %11 to i64
  store i64 %12, ptr %8, align 8
  %13 = getelementptr inbounds nuw i8, ptr %8, i64 8
  store i32 0, ptr %13, align 8
  %14 = getelementptr inbounds nuw i8, ptr %0, i64 52
  %15 = load i32, ptr %14, align 4
  %16 = call ptr @proto_tree_add_time(ptr noundef %1, i32 noundef %15, ptr noundef %3, i32 noundef %4, i32 noundef 4, ptr noundef nonnull %8)
  %17 = getelementptr inbounds nuw i8, ptr %2, i64 408
  %18 = load ptr, ptr %17, align 8
  %19 = call ptr @abs_time_to_str_ex(ptr noundef %18, ptr noundef nonnull %8, i32 noundef 18, i32 noundef 1)
  call void (ptr, ptr, ...) @proto_item_append_text(ptr noundef %6, ptr noundef nonnull @.str.8, ptr noundef %19)
  br label %20

20:                                               ; preds = %10, %9
  call void @llvm.lifetime.end.p0(i64 16, ptr nonnull %8) #14
  ret void
}